; Function Attrs: mustprogress uwtable
define void @_ZN12CFrmSettings6okSlotEv(ptr noundef nonnull align 8 dereferenceable(152) %0) #0 align 2 {
  tail call void @_ZN12CFrmSettings11saveContentEv(ptr noundef nonnull align 8 dereferenceable(152) %0)
  %2 = tail call noundef zeroext i1 @_ZN12CFrmSettings12createLayoutEv(ptr noundef nonnull align 8 dereferenceable(152) %0)
  br i1 %2, label %3, label %_ZN12CFrmSettings9drawGraphEv.exit

3:                                                ; preds = %1
  %4 = tail call noundef zeroext i1 @_ZN12CFrmSettings12renderLayoutEv(ptr noundef nonnull align 8 dereferenceable(152) %0)
  br i1 %4, label %5, label %_ZN12CFrmSettings9drawGraphEv.exit

5:                                                ; preds = %3
  %6 = getelementptr inbounds nuw i8, ptr %0, i64 80
  %7 = load ptr, ptr %6, align 8, !tbaa !236
  %8 = getelementptr inbounds nuw i8, ptr %7, i64 120
  store i8 0, ptr %8, align 8, !tbaa !237
  br label %_ZN12CFrmSettings9drawGraphEv.exit

_ZN12CFrmSettings9drawGraphEv.exit:               ; preds = %1, %3, %5
  %9 = tail call i32 @agreseterrors()
  %10 = load ptr, ptr %0, align 8, !tbaa !28
  %11 = getelementptr inbounds nuw i8, ptr %10, i64 432
  %12 = load ptr, ptr %11, align 8
  tail call void %12(ptr noundef nonnull align 8 dereferenceable(40) %0, i32 noundef 1)
  ret void
}